; Function Attrs: nounwind uwtable
define internal range(i32 -1, 1) i32 @H5D__earray_idx_dest(ptr noundef readonly captures(none) %0) #0 {
  %2 = load i8, ptr @H5D_init_g, align 1, !tbaa !3, !range !7, !noundef !8
  %3 = trunc nuw i8 %2 to i1
  %4 = load i8, ptr @H5_libterm_g, align 1, !range !7
  %5 = trunc nuw i8 %4 to i1
  %6 = xor i1 %5, true
  %7 = select i1 %3, i1 true, i1 %6
  br i1 %7, label %8, label %H5D__earray_idx_close.exit.thread, !prof !9

8:                                                ; preds = %1
  %9 = getelementptr inbounds nuw i8, ptr %0, i64 24
  %10 = load ptr, ptr %9, align 8, !tbaa !22
  %11 = getelementptr inbounds nuw i8, ptr %10, i64 32
  %12 = load ptr, ptr %11, align 8, !tbaa !21
  %.not = icmp eq ptr %12, null
  br i1 %.not, label %H5D__earray_idx_close.exit.thread, label %13

13:                                               ; preds = %8
  %14 = load ptr, ptr %0, align 8, !tbaa !34
  %15 = tail call i32 @H5EA_patch_file(ptr noundef nonnull %12, ptr noundef %14) #11
  %16 = icmp slt i32 %15, 0
  br i1 %16, label %17, label %21

17:                                               ; preds = %13
  %18 = load i64, ptr @H5E_DATASET_g, align 8, !tbaa !10
  %19 = load i64, ptr @H5E_CANTOPENOBJ_g, align 8, !tbaa !10
  %20 = tail call i32 (ptr, ptr, i32, i64, i64, ptr, ...) @H5E_printf_stack(ptr noundef nonnull @.str.2, ptr noundef nonnull @__func__.H5D__earray_idx_dest, i32 noundef 1782, i64 noundef %18, i64 noundef %19, ptr noundef nonnull @.str.37) #11
  br label %H5D__earray_idx_close.exit.thread

21:                                               ; preds = %13
  %22 = load i8, ptr @H5D_init_g, align 1, !tbaa !3, !range !7, !noundef !8
  %23 = trunc nuw i8 %22 to i1
  %24 = load i8, ptr @H5_libterm_g, align 1, !range !7
  %25 = trunc nuw i8 %24 to i1
  %26 = xor i1 %25, true
  %27 = select i1 %23, i1 true, i1 %26
  br i1 %27, label %28, label %H5D__earray_idx_close.exit.thread, !prof !9

28:                                               ; preds = %21
  %29 = load ptr, ptr %9, align 8, !tbaa !22
  %30 = getelementptr inbounds nuw i8, ptr %29, i64 32
  %31 = load ptr, ptr %30, align 8, !tbaa !21
  %32 = tail call i32 @H5EA_close(ptr noundef %31) #11
  %33 = icmp slt i32 %32, 0
  br i1 %33, label %37, label %34

34:                                               ; preds = %28
  %35 = load ptr, ptr %9, align 8, !tbaa !22
  %36 = getelementptr inbounds nuw i8, ptr %35, i64 32
  store ptr null, ptr %36, align 8, !tbaa !21
  br label %H5D__earray_idx_close.exit.thread

37:                                               ; preds = %28
  %38 = load i64, ptr @H5E_DATASET_g, align 8, !tbaa !10
  %39 = load i64, ptr @H5E_CANTCLOSEOBJ_g, align 8, !tbaa !10
  %40 = tail call i32 (ptr, ptr, i32, i64, i64, ptr, ...) @H5E_printf_stack(ptr noundef nonnull @.str.2, ptr noundef nonnull @__func__.H5D__earray_idx_close, i32 noundef 941, i64 noundef %38, i64 noundef %39, ptr noundef nonnull @.str.26) #11
  %41 = load i64, ptr @H5E_DATASET_g, align 8, !tbaa !10
  %42 = load i64, ptr @H5E_CANTCLOSEOBJ_g, align 8, !tbaa !10
  %43 = tail call i32 (ptr, ptr, i32, i64, i64, ptr, ...) @H5E_printf_stack(ptr noundef nonnull @.str.2, ptr noundef nonnull @__func__.H5D__earray_idx_dest, i32 noundef 1786, i64 noundef %41, i64 noundef %42, ptr noundef nonnull @.str.26) #11
  br label %H5D__earray_idx_close.exit.thread

H5D__earray_idx_close.exit.thread:                ; preds = %21, %34, %17, %37, %8, %1
  %.0 = phi i32 [ -1, %17 ], [ -1, %37 ], [ 0, %8 ], [ 0, %1 ], [ 0, %34 ], [ 0, %21 ]
  ret i32 %.0
}